target datalayout = "e-m:e-p270:32:32-p271:32:32-p272:64:64-i64:64-i128:128-f80:128-n8:16:32:64-S128"
target triple = "x86_64-pc-linux-gnu"

@.str = private unnamed_addr constant [131 x i8] c"generated/home/dtcxzyw/WorkSpace/Projects/compilers/llvm-opt-benchmark/bench/duckdb/duckdb/third_party/mbedtls/library/pkparse.cpp\00", align 1

; Function Attrs: inlinehint mustprogress nounwind uwtable
define internal noundef i32 @_ZL17mbedtls_error_addiiPKci(i32 noundef %0, i32 noundef %1, ptr noundef %2, i32 noundef %3) #3 {
  %5 = alloca i32, align 4
  %6 = alloca i32, align 4
  %7 = alloca ptr, align 8
  %8 = alloca i32, align 4
  store i32 %0, ptr %5, align 4, !tbaa !12
  store i32 %1, ptr %6, align 4, !tbaa !12
  store ptr %2, ptr %7, align 8, !tbaa !8
  store i32 %3, ptr %8, align 4, !tbaa !12
  %9 = load i32, ptr %5, align 4, !tbaa !12
  %10 = load i32, ptr %6, align 4, !tbaa !12
  %11 = add nsw i32 %9, %10
  ret i32 %11
}

; Function Attrs: mustprogress uwtable
define internal noundef i32 @_ZL16pk_get_rsapubkeyPPhPKhP19mbedtls_rsa_context(ptr noundef %0, ptr noundef %1, ptr noundef %2) #0 {
  %4 = alloca i32, align 4
  %5 = alloca ptr, align 8
  %6 = alloca ptr, align 8
  %7 = alloca ptr, align 8
  %8 = alloca i32, align 4
  %9 = alloca i64, align 8
  %10 = alloca i32, align 4
  store ptr %0, ptr %5, align 8, !tbaa !3
  store ptr %1, ptr %6, align 8, !tbaa !8
  store ptr %2, ptr %7, align 8, !tbaa !27
  call void @llvm.lifetime.start.p0(i64 4, ptr %8) #6
  store i32 -110, ptr %8, align 4, !tbaa !12
  call void @llvm.lifetime.start.p0(i64 8, ptr %9) #6
  %11 = load ptr, ptr %5, align 8, !tbaa !3
  %12 = load ptr, ptr %6, align 8, !tbaa !8
  %13 = call i32 @mbedtls_asn1_get_tag(ptr noundef %11, ptr noundef %12, ptr noundef %9, i32 noundef 48)
  store i32 %13, ptr %8, align 4, !tbaa !12
  %14 = icmp ne i32 %13, 0
  br i1 %14, label %15, label %18

15:                                               ; preds = %3
  %16 = load i32, ptr %8, align 4, !tbaa !12
  %17 = call noundef i32 @_ZL17mbedtls_error_addiiPKci(i32 noundef -15104, i32 noundef %16, ptr noundef @.str, i32 noundef 532)
  store i32 %17, ptr %4, align 4
  store i32 1, ptr %10, align 4
  br label %84

18:                                               ; preds = %3
  %19 = load ptr, ptr %5, align 8, !tbaa !3
  %20 = load ptr, ptr %19, align 8, !tbaa !8
  %21 = load i64, ptr %9, align 8, !tbaa !16
  %22 = getelementptr inbounds nuw i8, ptr %20, i64 %21
  %23 = load ptr, ptr %6, align 8, !tbaa !8
  %24 = icmp ne ptr %22, %23
  br i1 %24, label %25, label %27

25:                                               ; preds = %18
  %26 = call noundef i32 @_ZL17mbedtls_error_addiiPKci(i32 noundef -15104, i32 noundef -102, ptr noundef @.str, i32 noundef 536)
  store i32 %26, ptr %4, align 4
  store i32 1, ptr %10, align 4
  br label %84

27:                                               ; preds = %18
  %28 = load ptr, ptr %5, align 8, !tbaa !3
  %29 = load ptr, ptr %6, align 8, !tbaa !8
  %30 = call i32 @mbedtls_asn1_get_tag(ptr noundef %28, ptr noundef %29, ptr noundef %9, i32 noundef 2)
  store i32 %30, ptr %8, align 4, !tbaa !12
  %31 = icmp ne i32 %30, 0
  br i1 %31, label %32, label %35

32:                                               ; preds = %27
  %33 = load i32, ptr %8, align 4, !tbaa !12
  %34 = call noundef i32 @_ZL17mbedtls_error_addiiPKci(i32 noundef -15104, i32 noundef %33, ptr noundef @.str, i32 noundef 540)
  store i32 %34, ptr %4, align 4
  store i32 1, ptr %10, align 4
  br label %84

35:                                               ; preds = %27
  %36 = load ptr, ptr %7, align 8, !tbaa !27
  %37 = load ptr, ptr %5, align 8, !tbaa !3
  %38 = load ptr, ptr %37, align 8, !tbaa !8
  %39 = load i64, ptr %9, align 8, !tbaa !16
  %40 = call i32 @mbedtls_rsa_import_raw(ptr noundef %36, ptr noundef %38, i64 noundef %39, ptr noundef null, i64 noundef 0, ptr noundef null, i64 noundef 0, ptr noundef null, i64 noundef 0, ptr noundef null, i64 noundef 0)
  store i32 %40, ptr %8, align 4, !tbaa !12
  %41 = icmp ne i32 %40, 0
  br i1 %41, label %42, label %43

42:                                               ; preds = %35
  store i32 -15104, ptr %4, align 4
  store i32 1, ptr %10, align 4
  br label %84

43:                                               ; preds = %35
  %44 = load i64, ptr %9, align 8, !tbaa !16
  %45 = load ptr, ptr %5, align 8, !tbaa !3
  %46 = load ptr, ptr %45, align 8, !tbaa !8
  %47 = getelementptr inbounds nuw i8, ptr %46, i64 %44
  store ptr %47, ptr %45, align 8, !tbaa !8
  %48 = load ptr, ptr %5, align 8, !tbaa !3
  %49 = load ptr, ptr %6, align 8, !tbaa !8
  %50 = call i32 @mbedtls_asn1_get_tag(ptr noundef %48, ptr noundef %49, ptr noundef %9, i32 noundef 2)
  store i32 %50, ptr %8, align 4, !tbaa !12
  %51 = icmp ne i32 %50, 0
  br i1 %51, label %52, label %55

52:                                               ; preds = %43
  %53 = load i32, ptr %8, align 4, !tbaa !12
  %54 = call noundef i32 @_ZL17mbedtls_error_addiiPKci(i32 noundef -15104, i32 noundef %53, ptr noundef @.str, i32 noundef 550)
  store i32 %54, ptr %4, align 4
  store i32 1, ptr %10, align 4
  br label %84

55:                                               ; preds = %43
  %56 = load ptr, ptr %7, align 8, !tbaa !27
  %57 = load ptr, ptr %5, align 8, !tbaa !3
  %58 = load ptr, ptr %57, align 8, !tbaa !8
  %59 = load i64, ptr %9, align 8, !tbaa !16
  %60 = call i32 @mbedtls_rsa_import_raw(ptr noundef %56, ptr noundef null, i64 noundef 0, ptr noundef null, i64 noundef 0, ptr noundef null, i64 noundef 0, ptr noundef null, i64 noundef 0, ptr noundef %58, i64 noundef %59)
  store i32 %60, ptr %8, align 4, !tbaa !12
  %61 = icmp ne i32 %60, 0
  br i1 %61, label %62, label %63

62:                                               ; preds = %55
  store i32 -15104, ptr %4, align 4
  store i32 1, ptr %10, align 4
  br label %84

63:                                               ; preds = %55
  %64 = load i64, ptr %9, align 8, !tbaa !16
  %65 = load ptr, ptr %5, align 8, !tbaa !3
  %66 = load ptr, ptr %65, align 8, !tbaa !8
  %67 = getelementptr inbounds nuw i8, ptr %66, i64 %64
  store ptr %67, ptr %65, align 8, !tbaa !8
  %68 = load ptr, ptr %7, align 8, !tbaa !27
  %69 = call i32 @mbedtls_rsa_complete(ptr noundef %68)
  %70 = icmp ne i32 %69, 0
  br i1 %70, label %75, label %71

71:                                               ; preds = %63
  %72 = load ptr, ptr %7, align 8, !tbaa !27
  %73 = call i32 @mbedtls_rsa_check_pubkey(ptr noundef %72)
  %74 = icmp ne i32 %73, 0
  br i1 %74, label %75, label %76

75:                                               ; preds = %71, %63
  store i32 -15104, ptr %4, align 4
  store i32 1, ptr %10, align 4
  br label %84

76:                                               ; preds = %71
  %77 = load ptr, ptr %5, align 8, !tbaa !3
  %78 = load ptr, ptr %77, align 8, !tbaa !8
  %79 = load ptr, ptr %6, align 8, !tbaa !8
  %80 = icmp ne ptr %78, %79
  br i1 %80, label %81, label %83

81:                                               ; preds = %76
  %82 = call noundef i32 @_ZL17mbedtls_error_addiiPKci(i32 noundef -15104, i32 noundef -102, ptr noundef @.str, i32 noundef 566)
  store i32 %82, ptr %4, align 4
  store i32 1, ptr %10, align 4
  br label %84

83:                                               ; preds = %76
  store i32 0, ptr %4, align 4
  store i32 1, ptr %10, align 4
  br label %84

84:                                               ; preds = %83, %81, %75, %62, %52, %42, %32, %25, %15
  call void @llvm.lifetime.end.p0(i64 8, ptr %9) #6
  call void @llvm.lifetime.end.p0(i64 4, ptr %8) #6
  %85 = load i32, ptr %4, align 4
  ret i32 %85
}