; Function Attrs: mustprogress uwtable
define internal fastcc noundef range(i32 -2147483648, 2147468544) i32 @_ZL16pk_get_rsapubkeyPPhPKhP19mbedtls_rsa_context(ptr noundef %0, ptr noundef %1, ptr noundef %2) unnamed_addr #0 {
  %4 = alloca i64, align 8
  call void @llvm.lifetime.start.p0(i64 8, ptr nonnull %4) #4
  %5 = call i32 @mbedtls_asn1_get_tag(ptr noundef %0, ptr noundef %1, ptr noundef nonnull %4, i32 noundef 48)
  %.not = icmp eq i32 %5, 0
  br i1 %.not, label %8, label %6

6:                                                ; preds = %3
  %7 = add nsw i32 %5, -15104
  br label %40

8:                                                ; preds = %3
  %9 = load ptr, ptr %0, align 8, !tbaa !7
  %10 = load i64, ptr %4, align 8, !tbaa !10
  %11 = getelementptr inbounds nuw i8, ptr %9, i64 %10
  %.not25 = icmp eq ptr %11, %1
  br i1 %.not25, label %12, label %40

12:                                               ; preds = %8
  %13 = call i32 @mbedtls_asn1_get_tag(ptr noundef nonnull %0, ptr noundef %1, ptr noundef nonnull %4, i32 noundef 2)
  %.not26 = icmp eq i32 %13, 0
  br i1 %.not26, label %16, label %14

14:                                               ; preds = %12
  %15 = add nsw i32 %13, -15104
  br label %40

16:                                               ; preds = %12
  %17 = load ptr, ptr %0, align 8, !tbaa !7
  %18 = load i64, ptr %4, align 8, !tbaa !10
  %19 = call i32 @mbedtls_rsa_import_raw(ptr noundef %2, ptr noundef %17, i64 noundef %18, ptr noundef null, i64 noundef 0, ptr noundef null, i64 noundef 0, ptr noundef null, i64 noundef 0, ptr noundef null, i64 noundef 0)
  %.not27 = icmp eq i32 %19, 0
  br i1 %.not27, label %20, label %40

20:                                               ; preds = %16
  %21 = load i64, ptr %4, align 8, !tbaa !10
  %22 = load ptr, ptr %0, align 8, !tbaa !7
  %23 = getelementptr inbounds nuw i8, ptr %22, i64 %21
  store ptr %23, ptr %0, align 8, !tbaa !7
  %24 = call i32 @mbedtls_asn1_get_tag(ptr noundef nonnull %0, ptr noundef %1, ptr noundef nonnull %4, i32 noundef 2)
  %.not28 = icmp eq i32 %24, 0
  br i1 %.not28, label %27, label %25

25:                                               ; preds = %20
  %26 = add nsw i32 %24, -15104
  br label %40

27:                                               ; preds = %20
  %28 = load ptr, ptr %0, align 8, !tbaa !7
  %29 = load i64, ptr %4, align 8, !tbaa !10
  %30 = call i32 @mbedtls_rsa_import_raw(ptr noundef %2, ptr noundef null, i64 noundef 0, ptr noundef null, i64 noundef 0, ptr noundef null, i64 noundef 0, ptr noundef null, i64 noundef 0, ptr noundef %28, i64 noundef %29)
  %.not29 = icmp eq i32 %30, 0
  br i1 %.not29, label %31, label %40

31:                                               ; preds = %27
  %32 = load i64, ptr %4, align 8, !tbaa !10
  %33 = load ptr, ptr %0, align 8, !tbaa !7
  %34 = getelementptr inbounds nuw i8, ptr %33, i64 %32
  store ptr %34, ptr %0, align 8, !tbaa !7
  %35 = call i32 @mbedtls_rsa_complete(ptr noundef %2)
  %.not30 = icmp eq i32 %35, 0
  br i1 %.not30, label %36, label %40

36:                                               ; preds = %31
  %37 = call i32 @mbedtls_rsa_check_pubkey(ptr noundef %2)
  %.not31 = icmp eq i32 %37, 0
  br i1 %.not31, label %38, label %40

38:                                               ; preds = %36
  %39 = load ptr, ptr %0, align 8, !tbaa !7
  %.not32 = icmp eq ptr %39, %1
  %spec.select = select i1 %.not32, i32 0, i32 -15206
  br label %40

40:                                               ; preds = %38, %8, %31, %36, %27, %16, %25, %14, %6
  %.0 = phi i32 [ %7, %6 ], [ %15, %14 ], [ %26, %25 ], [ -15104, %16 ], [ -15104, %27 ], [ -15104, %36 ], [ -15104, %31 ], [ -15206, %8 ], [ %spec.select, %38 ]
  call void @llvm.lifetime.end.p0(i64 8, ptr nonnull %4) #4
  ret i32 %.0
}